target datalayout = "e-m:e-p270:32:32-p271:32:32-p272:64:64-i64:64-i128:128-f80:128-n8:16:32:64-S128"
target triple = "x86_64-pc-linux-gnu"

%struct.AVChannelLayout = type { i32, i32, %union.anon, ptr }
%union.anon = type { i64 }
%struct.AVFormatContext = type { ptr, ptr, ptr, ptr, ptr, i32, i32, ptr, i32, ptr, i32, ptr, ptr, i64, i64, i64, i32, i32, i32, i64, i64, ptr, i32, i32, ptr, i32, i32, i32, i32, ptr, i64, i32, i32, %struct.AVIOInterruptCB, i32, i32, i32, i32, i64, i32, i32, i32, i32, i32, i32, i32, i32, i32, i32, i32, i32, i64, i32, i32, i32, i32, i32, ptr, ptr, ptr, ptr, i32, ptr, ptr, ptr, ptr, i32, ptr, ptr, i64, ptr, ptr, ptr, i64 }
%struct.AVIOInterruptCB = type { ptr, ptr }
%struct.IssDemuxContext = type { i32, i32 }
%struct.AVStream = type { ptr, i32, i32, ptr, ptr, %struct.AVRational, i64, i64, i64, i32, i32, %struct.AVRational, ptr, %struct.AVRational, %struct.AVPacket, i32, %struct.AVRational, i32 }
%struct.AVPacket = type { ptr, i64, i64, ptr, i32, i32, i32, ptr, i32, i64, i64, ptr, ptr, %struct.AVRational }
%struct.AVRational = type { i32, i32 }
%struct.AVCodecParameters = type { i32, i32, i32, ptr, i32, ptr, i32, i32, i64, i32, i32, i32, i32, i32, i32, %struct.AVRational, %struct.AVRational, i32, i32, i32, i32, i32, i32, i32, %struct.AVChannelLayout, i32, i32, i32, i32, i32, i32 }

@.str.3 = private unnamed_addr constant [3 x i8] c"%d\00", align 1
@.str.4 = private unnamed_addr constant [28 x i8] c"Failed parsing packet size\0A\00", align 1
@.str.5 = private unnamed_addr constant [28 x i8] c"Failed parsing stereo flag\0A\00", align 1
@.str.6 = private unnamed_addr constant [29 x i8] c"Failed parsing rate_divisor\0A\00", align 1
@.str.7 = private unnamed_addr constant [27 x i8] c"packet_size %d is invalid\0A\00", align 1

; Function Attrs: alwaysinline nounwind uwtable
define internal i64 @avio_tell(ptr noundef %0) #6 {
  %2 = alloca ptr, align 8
  store ptr %0, ptr %2, align 8, !tbaa !33
  %3 = load ptr, ptr %2, align 8, !tbaa !33
  %4 = call i64 @avio_seek(ptr noundef %3, i64 noundef 0, i32 noundef 1)
  ret i64 %4
}

; Function Attrs: cold nounwind optsize uwtable
define internal i32 @iss_read_header(ptr noundef %0) #1 {
  %2 = alloca i32, align 4
  %3 = alloca ptr, align 8
  %4 = alloca ptr, align 8
  %5 = alloca ptr, align 8
  %6 = alloca ptr, align 8
  %7 = alloca [20 x i8], align 16
  %8 = alloca i32, align 4
  %9 = alloca i32, align 4
  %10 = alloca i32, align 4
  %11 = alloca %struct.AVChannelLayout, align 8
  %12 = alloca %struct.AVChannelLayout, align 8
  store ptr %0, ptr %3, align 8, !tbaa !13
  call void @llvm.lifetime.start.p0(i64 8, ptr %4) #9
  %13 = load ptr, ptr %3, align 8, !tbaa !13
  %14 = getelementptr inbounds nuw %struct.AVFormatContext, ptr %13, i32 0, i32 3
  %15 = load ptr, ptr %14, align 8, !tbaa !15
  store ptr %15, ptr %4, align 8, !tbaa !30
  call void @llvm.lifetime.start.p0(i64 8, ptr %5) #9
  %16 = load ptr, ptr %3, align 8, !tbaa !13
  %17 = getelementptr inbounds nuw %struct.AVFormatContext, ptr %16, i32 0, i32 4
  %18 = load ptr, ptr %17, align 8, !tbaa !32
  store ptr %18, ptr %5, align 8, !tbaa !33
  call void @llvm.lifetime.start.p0(i64 8, ptr %6) #9
  call void @llvm.lifetime.start.p0(i64 20, ptr %7) #9
  call void @llvm.lifetime.start.p0(i64 4, ptr %8) #9
  call void @llvm.lifetime.start.p0(i64 4, ptr %9) #9
  %19 = load ptr, ptr %5, align 8, !tbaa !33
  %20 = getelementptr inbounds [20 x i8], ptr %7, i64 0, i64 0
  call void @get_token(ptr noundef %19, ptr noundef %20, i32 noundef 20)
  %21 = load ptr, ptr %5, align 8, !tbaa !33
  %22 = getelementptr inbounds [20 x i8], ptr %7, i64 0, i64 0
  call void @get_token(ptr noundef %21, ptr noundef %22, i32 noundef 20)
  %23 = getelementptr inbounds [20 x i8], ptr %7, i64 0, i64 0
  %24 = load ptr, ptr %4, align 8, !tbaa !30
  %25 = getelementptr inbounds nuw %struct.IssDemuxContext, ptr %24, i32 0, i32 0
  %26 = call i32 (ptr, ptr, ...) @__isoc99_sscanf(ptr noundef %23, ptr noundef @.str.3, ptr noundef %25) #9
  %27 = icmp ne i32 %26, 1
  br i1 %27, label %28, label %30

28:                                               ; preds = %1
  %29 = load ptr, ptr %3, align 8, !tbaa !13
  call void (ptr, i32, ptr, ...) @av_log(ptr noundef %29, i32 noundef 16, ptr noundef @.str.4)
  store i32 -1094995529, ptr %2, align 4
  store i32 1, ptr %10, align 4
  br label %164

30:                                               ; preds = %1
  %31 = load ptr, ptr %5, align 8, !tbaa !33
  %32 = getelementptr inbounds [20 x i8], ptr %7, i64 0, i64 0
  call void @get_token(ptr noundef %31, ptr noundef %32, i32 noundef 20)
  %33 = load ptr, ptr %5, align 8, !tbaa !33
  %34 = getelementptr inbounds [20 x i8], ptr %7, i64 0, i64 0
  call void @get_token(ptr noundef %33, ptr noundef %34, i32 noundef 20)
  %35 = load ptr, ptr %5, align 8, !tbaa !33
  %36 = getelementptr inbounds [20 x i8], ptr %7, i64 0, i64 0
  call void @get_token(ptr noundef %35, ptr noundef %36, i32 noundef 20)
  %37 = getelementptr inbounds [20 x i8], ptr %7, i64 0, i64 0
  %38 = call i32 (ptr, ptr, ...) @__isoc99_sscanf(ptr noundef %37, ptr noundef @.str.3, ptr noundef %8) #9
  %39 = icmp ne i32 %38, 1
  br i1 %39, label %40, label %42

40:                                               ; preds = %30
  %41 = load ptr, ptr %3, align 8, !tbaa !13
  call void (ptr, i32, ptr, ...) @av_log(ptr noundef %41, i32 noundef 16, ptr noundef @.str.5)
  store i32 -1094995529, ptr %2, align 4
  store i32 1, ptr %10, align 4
  br label %164

42:                                               ; preds = %30
  %43 = load ptr, ptr %5, align 8, !tbaa !33
  %44 = getelementptr inbounds [20 x i8], ptr %7, i64 0, i64 0
  call void @get_token(ptr noundef %43, ptr noundef %44, i32 noundef 20)
  %45 = load ptr, ptr %5, align 8, !tbaa !33
  %46 = getelementptr inbounds [20 x i8], ptr %7, i64 0, i64 0
  call void @get_token(ptr noundef %45, ptr noundef %46, i32 noundef 20)
  %47 = getelementptr inbounds [20 x i8], ptr %7, i64 0, i64 0
  %48 = call i32 (ptr, ptr, ...) @__isoc99_sscanf(ptr noundef %47, ptr noundef @.str.3, ptr noundef %9) #9
  %49 = icmp ne i32 %48, 1
  br i1 %49, label %50, label %52

50:                                               ; preds = %42
  %51 = load ptr, ptr %3, align 8, !tbaa !13
  call void (ptr, i32, ptr, ...) @av_log(ptr noundef %51, i32 noundef 16, ptr noundef @.str.6)
  store i32 -1094995529, ptr %2, align 4
  store i32 1, ptr %10, align 4
  br label %164

52:                                               ; preds = %42
  %53 = load ptr, ptr %5, align 8, !tbaa !33
  %54 = getelementptr inbounds [20 x i8], ptr %7, i64 0, i64 0
  call void @get_token(ptr noundef %53, ptr noundef %54, i32 noundef 20)
  %55 = load ptr, ptr %5, align 8, !tbaa !33
  %56 = getelementptr inbounds [20 x i8], ptr %7, i64 0, i64 0
  call void @get_token(ptr noundef %55, ptr noundef %56, i32 noundef 20)
  %57 = load ptr, ptr %5, align 8, !tbaa !33
  %58 = getelementptr inbounds [20 x i8], ptr %7, i64 0, i64 0
  call void @get_token(ptr noundef %57, ptr noundef %58, i32 noundef 20)
  %59 = load ptr, ptr %4, align 8, !tbaa !30
  %60 = getelementptr inbounds nuw %struct.IssDemuxContext, ptr %59, i32 0, i32 0
  %61 = load i32, ptr %60, align 4, !tbaa !34
  %62 = icmp sle i32 %61, 0
  br i1 %62, label %63, label %68

63:                                               ; preds = %52
  %64 = load ptr, ptr %3, align 8, !tbaa !13
  %65 = load ptr, ptr %4, align 8, !tbaa !30
  %66 = getelementptr inbounds nuw %struct.IssDemuxContext, ptr %65, i32 0, i32 0
  %67 = load i32, ptr %66, align 4, !tbaa !34
  call void (ptr, i32, ptr, ...) @av_log(ptr noundef %64, i32 noundef 16, ptr noundef @.str.7, i32 noundef %67)
  store i32 -1094995529, ptr %2, align 4
  store i32 1, ptr %10, align 4
  br label %164

68:                                               ; preds = %52
  %69 = load ptr, ptr %5, align 8, !tbaa !33
  %70 = call i64 @avio_tell(ptr noundef %69)
  %71 = trunc i64 %70 to i32
  %72 = load ptr, ptr %4, align 8, !tbaa !30
  %73 = getelementptr inbounds nuw %struct.IssDemuxContext, ptr %72, i32 0, i32 1
  store i32 %71, ptr %73, align 4, !tbaa !36
  %74 = load ptr, ptr %3, align 8, !tbaa !13
  %75 = call ptr @avformat_new_stream(ptr noundef %74, ptr noundef null)
  store ptr %75, ptr %6, align 8, !tbaa !37
  %76 = load ptr, ptr %6, align 8, !tbaa !37
  %77 = icmp ne ptr %76, null
  br i1 %77, label %79, label %78

78:                                               ; preds = %68
  store i32 -12, ptr %2, align 4
  store i32 1, ptr %10, align 4
  br label %164

79:                                               ; preds = %68
  %80 = load ptr, ptr %6, align 8, !tbaa !37
  %81 = getelementptr inbounds nuw %struct.AVStream, ptr %80, i32 0, i32 3
  %82 = load ptr, ptr %81, align 8, !tbaa !39
  %83 = getelementptr inbounds nuw %struct.AVCodecParameters, ptr %82, i32 0, i32 0
  store i32 1, ptr %83, align 8, !tbaa !46
  %84 = load ptr, ptr %6, align 8, !tbaa !37
  %85 = getelementptr inbounds nuw %struct.AVStream, ptr %84, i32 0, i32 3
  %86 = load ptr, ptr %85, align 8, !tbaa !39
  %87 = getelementptr inbounds nuw %struct.AVCodecParameters, ptr %86, i32 0, i32 1
  store i32 69659, ptr %87, align 4, !tbaa !49
  %88 = load i32, ptr %8, align 4, !tbaa !50
  %89 = icmp ne i32 %88, 0
  br i1 %89, label %90, label %99

90:                                               ; preds = %79
  %91 = load ptr, ptr %6, align 8, !tbaa !37
  %92 = getelementptr inbounds nuw %struct.AVStream, ptr %91, i32 0, i32 3
  %93 = load ptr, ptr %92, align 8, !tbaa !39
  %94 = getelementptr inbounds nuw %struct.AVCodecParameters, ptr %93, i32 0, i32 24
  %95 = getelementptr inbounds nuw %struct.AVChannelLayout, ptr %11, i32 0, i32 0
  store i32 1, ptr %95, align 8, !tbaa !51
  %96 = getelementptr inbounds nuw %struct.AVChannelLayout, ptr %11, i32 0, i32 1
  store i32 2, ptr %96, align 4, !tbaa !52
  %97 = getelementptr inbounds nuw %struct.AVChannelLayout, ptr %11, i32 0, i32 2
  store i64 3, ptr %97, align 8, !tbaa !53
  %98 = getelementptr inbounds nuw %struct.AVChannelLayout, ptr %11, i32 0, i32 3
  store ptr null, ptr %98, align 8, !tbaa !54
  call void @llvm.memcpy.p0.p0.i64(ptr align 8 %94, ptr align 8 %11, i64 24, i1 false), !tbaa.struct !55
  br label %108

99:                                               ; preds = %79
  %100 = load ptr, ptr %6, align 8, !tbaa !37
  %101 = getelementptr inbounds nuw %struct.AVStream, ptr %100, i32 0, i32 3
  %102 = load ptr, ptr %101, align 8, !tbaa !39
  %103 = getelementptr inbounds nuw %struct.AVCodecParameters, ptr %102, i32 0, i32 24
  %104 = getelementptr inbounds nuw %struct.AVChannelLayout, ptr %12, i32 0, i32 0
  store i32 1, ptr %104, align 8, !tbaa !51
  %105 = getelementptr inbounds nuw %struct.AVChannelLayout, ptr %12, i32 0, i32 1
  store i32 1, ptr %105, align 4, !tbaa !52
  %106 = getelementptr inbounds nuw %struct.AVChannelLayout, ptr %12, i32 0, i32 2
  store i64 4, ptr %106, align 8, !tbaa !53
  %107 = getelementptr inbounds nuw %struct.AVChannelLayout, ptr %12, i32 0, i32 3
  store ptr null, ptr %107, align 8, !tbaa !54
  call void @llvm.memcpy.p0.p0.i64(ptr align 8 %103, ptr align 8 %12, i64 24, i1 false), !tbaa.struct !55
  br label %108

108:                                              ; preds = %99, %90
  %109 = load ptr, ptr %6, align 8, !tbaa !37
  %110 = getelementptr inbounds nuw %struct.AVStream, ptr %109, i32 0, i32 3
  %111 = load ptr, ptr %110, align 8, !tbaa !39
  %112 = getelementptr inbounds nuw %struct.AVCodecParameters, ptr %111, i32 0, i32 25
  store i32 44100, ptr %112, align 8, !tbaa !57
  %113 = load i32, ptr %9, align 4, !tbaa !50
  %114 = icmp sgt i32 %113, 0
  br i1 %114, label %115, label %123

115:                                              ; preds = %108
  %116 = load i32, ptr %9, align 4, !tbaa !50
  %117 = load ptr, ptr %6, align 8, !tbaa !37
  %118 = getelementptr inbounds nuw %struct.AVStream, ptr %117, i32 0, i32 3
  %119 = load ptr, ptr %118, align 8, !tbaa !39
  %120 = getelementptr inbounds nuw %struct.AVCodecParameters, ptr %119, i32 0, i32 25
  %121 = load i32, ptr %120, align 8, !tbaa !57
  %122 = sdiv i32 %121, %116
  store i32 %122, ptr %120, align 8, !tbaa !57
  br label %123

123:                                              ; preds = %115, %108
  %124 = load ptr, ptr %6, align 8, !tbaa !37
  %125 = getelementptr inbounds nuw %struct.AVStream, ptr %124, i32 0, i32 3
  %126 = load ptr, ptr %125, align 8, !tbaa !39
  %127 = getelementptr inbounds nuw %struct.AVCodecParameters, ptr %126, i32 0, i32 9
  store i32 4, ptr %127, align 8, !tbaa !58
  %128 = load ptr, ptr %6, align 8, !tbaa !37
  %129 = getelementptr inbounds nuw %struct.AVStream, ptr %128, i32 0, i32 3
  %130 = load ptr, ptr %129, align 8, !tbaa !39
  %131 = getelementptr inbounds nuw %struct.AVCodecParameters, ptr %130, i32 0, i32 24
  %132 = getelementptr inbounds nuw %struct.AVChannelLayout, ptr %131, i32 0, i32 1
  %133 = load i32, ptr %132, align 4, !tbaa !59
  %134 = load ptr, ptr %6, align 8, !tbaa !37
  %135 = getelementptr inbounds nuw %struct.AVStream, ptr %134, i32 0, i32 3
  %136 = load ptr, ptr %135, align 8, !tbaa !39
  %137 = getelementptr inbounds nuw %struct.AVCodecParameters, ptr %136, i32 0, i32 25
  %138 = load i32, ptr %137, align 8, !tbaa !57
  %139 = mul nsw i32 %133, %138
  %140 = load ptr, ptr %6, align 8, !tbaa !37
  %141 = getelementptr inbounds nuw %struct.AVStream, ptr %140, i32 0, i32 3
  %142 = load ptr, ptr %141, align 8, !tbaa !39
  %143 = getelementptr inbounds nuw %struct.AVCodecParameters, ptr %142, i32 0, i32 9
  %144 = load i32, ptr %143, align 8, !tbaa !58
  %145 = mul nsw i32 %139, %144
  %146 = sext i32 %145 to i64
  %147 = load ptr, ptr %6, align 8, !tbaa !37
  %148 = getelementptr inbounds nuw %struct.AVStream, ptr %147, i32 0, i32 3
  %149 = load ptr, ptr %148, align 8, !tbaa !39
  %150 = getelementptr inbounds nuw %struct.AVCodecParameters, ptr %149, i32 0, i32 8
  store i64 %146, ptr %150, align 8, !tbaa !60
  %151 = load ptr, ptr %4, align 8, !tbaa !30
  %152 = getelementptr inbounds nuw %struct.IssDemuxContext, ptr %151, i32 0, i32 0
  %153 = load i32, ptr %152, align 4, !tbaa !34
  %154 = load ptr, ptr %6, align 8, !tbaa !37
  %155 = getelementptr inbounds nuw %struct.AVStream, ptr %154, i32 0, i32 3
  %156 = load ptr, ptr %155, align 8, !tbaa !39
  %157 = getelementptr inbounds nuw %struct.AVCodecParameters, ptr %156, i32 0, i32 26
  store i32 %153, ptr %157, align 4, !tbaa !61
  %158 = load ptr, ptr %6, align 8, !tbaa !37
  %159 = load ptr, ptr %6, align 8, !tbaa !37
  %160 = getelementptr inbounds nuw %struct.AVStream, ptr %159, i32 0, i32 3
  %161 = load ptr, ptr %160, align 8, !tbaa !39
  %162 = getelementptr inbounds nuw %struct.AVCodecParameters, ptr %161, i32 0, i32 25
  %163 = load i32, ptr %162, align 8, !tbaa !57
  call void @avpriv_set_pts_info(ptr noundef %158, i32 noundef 32, i32 noundef 1, i32 noundef %163)
  store i32 0, ptr %2, align 4
  store i32 1, ptr %10, align 4
  br label %164

164:                                              ; preds = %123, %78, %63, %50, %40, %28
  call void @llvm.lifetime.end.p0(i64 4, ptr %9) #9
  call void @llvm.lifetime.end.p0(i64 4, ptr %8) #9
  call void @llvm.lifetime.end.p0(i64 20, ptr %7) #9
  call void @llvm.lifetime.end.p0(i64 8, ptr %6) #9
  call void @llvm.lifetime.end.p0(i64 8, ptr %5) #9
  call void @llvm.lifetime.end.p0(i64 8, ptr %4) #9
  %165 = load i32, ptr %2, align 4
  ret i32 %165
}