; Function Attrs: cold nounwind optsize uwtable
define internal range(i32 -1094995529, 1) i32 @iss_read_header(ptr noundef %0) #1 {
  %2 = alloca [20 x i8], align 16
  %3 = alloca i32, align 4
  %4 = alloca i32, align 4
  %5 = getelementptr inbounds nuw i8, ptr %0, i64 24
  %6 = load ptr, ptr %5, align 8, !tbaa !11
  %7 = getelementptr inbounds nuw i8, ptr %0, i64 32
  %8 = load ptr, ptr %7, align 8, !tbaa !26
  call void @llvm.lifetime.start.p0(i64 20, ptr nonnull %2) #8
  call void @llvm.lifetime.start.p0(i64 4, ptr nonnull %3) #8
  call void @llvm.lifetime.start.p0(i64 4, ptr nonnull %4) #8
  call fastcc void @get_token(ptr noundef %8, ptr noundef %2)
  call fastcc void @get_token(ptr noundef %8, ptr noundef %2)
  %9 = call i32 (ptr, ptr, ...) @__isoc99_sscanf(ptr noundef nonnull %2, ptr noundef nonnull @.str.3, ptr noundef %6) #8
  %.not = icmp eq i32 %9, 1
  br i1 %.not, label %11, label %10

10:                                               ; preds = %1
  tail call void (ptr, i32, ptr, ...) @av_log(ptr noundef nonnull %0, i32 noundef 16, ptr noundef nonnull @.str.4) #8
  br label %52

11:                                               ; preds = %1
  call fastcc void @get_token(ptr noundef %8, ptr noundef %2)
  call fastcc void @get_token(ptr noundef %8, ptr noundef %2)
  call fastcc void @get_token(ptr noundef %8, ptr noundef %2)
  %12 = call i32 (ptr, ptr, ...) @__isoc99_sscanf(ptr noundef nonnull %2, ptr noundef nonnull @.str.3, ptr noundef nonnull %3) #8
  %.not45 = icmp eq i32 %12, 1
  br i1 %.not45, label %14, label %13

13:                                               ; preds = %11
  call void (ptr, i32, ptr, ...) @av_log(ptr noundef nonnull %0, i32 noundef 16, ptr noundef nonnull @.str.5) #8
  br label %52

14:                                               ; preds = %11
  call fastcc void @get_token(ptr noundef %8, ptr noundef %2)
  call fastcc void @get_token(ptr noundef %8, ptr noundef %2)
  %15 = call i32 (ptr, ptr, ...) @__isoc99_sscanf(ptr noundef nonnull %2, ptr noundef nonnull @.str.3, ptr noundef nonnull %4) #8
  %.not46 = icmp eq i32 %15, 1
  br i1 %.not46, label %17, label %16

16:                                               ; preds = %14
  call void (ptr, i32, ptr, ...) @av_log(ptr noundef nonnull %0, i32 noundef 16, ptr noundef nonnull @.str.6) #8
  br label %52

17:                                               ; preds = %14
  call fastcc void @get_token(ptr noundef %8, ptr noundef %2)
  call fastcc void @get_token(ptr noundef %8, ptr noundef %2)
  call fastcc void @get_token(ptr noundef %8, ptr noundef %2)
  %18 = load i32, ptr %6, align 4, !tbaa !27
  %19 = icmp slt i32 %18, 1
  br i1 %19, label %20, label %21

20:                                               ; preds = %17
  call void (ptr, i32, ptr, ...) @av_log(ptr noundef nonnull %0, i32 noundef 16, ptr noundef nonnull @.str.7, i32 noundef %18) #8
  br label %52

21:                                               ; preds = %17
  %22 = call i64 @avio_seek(ptr noundef %8, i64 noundef 0, i32 noundef 1) #8
  %23 = trunc i64 %22 to i32
  %24 = getelementptr inbounds nuw i8, ptr %6, i64 4
  store i32 %23, ptr %24, align 4, !tbaa !29
  %25 = call ptr @avformat_new_stream(ptr noundef nonnull %0, ptr noundef null) #8
  %.not47 = icmp eq ptr %25, null
  br i1 %.not47, label %52, label %26

26:                                               ; preds = %21
  %27 = getelementptr inbounds nuw i8, ptr %25, i64 16
  %28 = load ptr, ptr %27, align 8, !tbaa !30
  store i32 1, ptr %28, align 8, !tbaa !37
  %29 = getelementptr inbounds nuw i8, ptr %28, i64 4
  store i32 69659, ptr %29, align 4, !tbaa !40
  %30 = load i32, ptr %3, align 4, !tbaa !41
  %.not48 = icmp eq i32 %30, 0
  %spec.select = select i1 %.not48, i32 1, i32 2
  %spec.select50 = select i1 %.not48, i64 4, i64 3
  %31 = getelementptr inbounds nuw i8, ptr %28, i64 128
  store i32 1, ptr %31, align 8, !tbaa !41
  %32 = getelementptr inbounds nuw i8, ptr %28, i64 132
  store i32 %spec.select, ptr %32, align 4, !tbaa !41
  %33 = getelementptr inbounds nuw i8, ptr %28, i64 136
  store i64 %spec.select50, ptr %33, align 8, !tbaa !42
  %34 = getelementptr inbounds nuw i8, ptr %28, i64 144
  store ptr null, ptr %34, align 8, !tbaa !43
  %35 = load ptr, ptr %27, align 8, !tbaa !30
  %36 = getelementptr inbounds nuw i8, ptr %35, i64 152
  store i32 44100, ptr %36, align 8, !tbaa !44
  %37 = load i32, ptr %4, align 4, !tbaa !41
  %38 = icmp sgt i32 %37, 0
  br i1 %38, label %39, label %41

39:                                               ; preds = %26
  %40 = udiv i32 44100, %37
  store i32 %40, ptr %36, align 8, !tbaa !44
  br label %41

41:                                               ; preds = %39, %26
  %42 = phi i32 [ %40, %39 ], [ 44100, %26 ]
  %43 = getelementptr inbounds nuw i8, ptr %35, i64 56
  store i32 4, ptr %43, align 8, !tbaa !45
  %44 = getelementptr inbounds nuw i8, ptr %35, i64 132
  %45 = load i32, ptr %44, align 4, !tbaa !46
  %46 = shl i32 %45, 2
  %47 = mul i32 %46, %42
  %48 = sext i32 %47 to i64
  %49 = getelementptr inbounds nuw i8, ptr %35, i64 48
  store i64 %48, ptr %49, align 8, !tbaa !47
  %50 = load i32, ptr %6, align 4, !tbaa !27
  %51 = getelementptr inbounds nuw i8, ptr %35, i64 156
  store i32 %50, ptr %51, align 4, !tbaa !48
  call void @avpriv_set_pts_info(ptr noundef nonnull %25, i32 noundef 32, i32 noundef 1, i32 noundef %42) #8
  br label %52

52:                                               ; preds = %21, %41, %20, %16, %13, %10
  %.0 = phi i32 [ -1094995529, %10 ], [ -1094995529, %13 ], [ -1094995529, %16 ], [ -1094995529, %20 ], [ 0, %41 ], [ -12, %21 ]
  call void @llvm.lifetime.end.p0(i64 4, ptr nonnull %4) #8
  call void @llvm.lifetime.end.p0(i64 4, ptr nonnull %3) #8
  call void @llvm.lifetime.end.p0(i64 20, ptr nonnull %2) #8
  ret i32 %.0
}